; Function Attrs: null_pointer_is_valid sspstrong uwtable
define internal fastcc i32 @megaco_tvb_skip_wsp(ptr noundef %0, i32 noundef %1) unnamed_addr #0 {
  %3 = tail call i32 @tvb_reported_length(ptr noundef %0)
  %4 = icmp slt i32 %1, %3
  br i1 %4, label %.lr.ph, label %.critedge

.lr.ph:                                           ; preds = %2
  %5 = load ptr, ptr @g_ascii_table, align 8
  br label %6

6:                                                ; preds = %.lr.ph, %12
  %.08 = phi i32 [ %1, %.lr.ph ], [ %13, %12 ]
  %7 = tail call zeroext i8 @tvb_get_uint8(ptr noundef %0, i32 noundef %.08)
  %8 = zext i8 %7 to i64
  %9 = getelementptr i16, ptr %5, i64 %8
  %10 = load i16, ptr %9, align 2
  %11 = and i16 %10, 256
  %.not = icmp eq i16 %11, 0
  br i1 %.not, label %.critedge, label %12

12:                                               ; preds = %6
  %13 = add i32 %.08, 1
  %exitcond.not = icmp eq i32 %13, %3
  br i1 %exitcond.not, label %.critedge, label %6, !llvm.loop !8

.critedge:                                        ; preds = %6, %12, %2
  %.0.lcssa = phi i32 [ %1, %2 ], [ %3, %12 ], [ %.08, %6 ]
  ret i32 %.0.lcssa
}